target datalayout = "e-m:e-p270:32:32-p271:32:32-p272:64:64-i64:64-i128:128-f80:128-n8:16:32:64-S128"
target triple = "x86_64-pc-linux-gnu"

%struct.pmi2_tree_info = type { ptr, ptr, i32, i32, i32, i32, i16, ptr, ptr }
%struct.pmi2_job_info = type { %struct.slurm_step_id_msg, i32, i32, i32, i32, i32, ptr, i32, i32, ptr, ptr, ptr, ptr, ptr, ptr, ptr, ptr }
%struct.slurm_step_id_msg = type { i64, i32, i32, i32 }

@plugin_type = external constant [0 x i8], align 1
@tree_info = external global %struct.pmi2_tree_info, align 8
@.str.19 = private unnamed_addr constant [91 x i8] c"%s: %s: mpi/pmi2: in _handle_kvs_fence, from node %u(%s) representing %u offspring, seq=%u\00", align 1
@__func__._handle_kvs_fence = private unnamed_addr constant [18 x i8] c"_handle_kvs_fence\00", align 1
@kvs_seq = external global i32, align 4
@.str.20 = private unnamed_addr constant [69 x i8] c"mpi/pmi2: invalid kvs seq from node %u(%s) ignored, expect %u got %u\00", align 1
@.str.21 = private unnamed_addr constant [79 x i8] c"%s: %s: mpi/pmi2: duplicate KVS_FENCE request from node %u(%s) ignored, seq=%u\00", align 1
@tasks_to_wait = external global i32, align 4
@children_to_wait = external global i32, align 4
@job_info = external global %struct.pmi2_job_info, align 8
@.str.22 = private unnamed_addr constant [40 x i8] c"mpi/pmi2: failed to send temp kvs to %s\00", align 1
@.str.23 = private unnamed_addr constant [5 x i8] c"srun\00", align 1
@.str.24 = private unnamed_addr constant [34 x i8] c"mpi/pmi2: failed to send temp kvs\00", align 1
@.str.25 = private unnamed_addr constant [51 x i8] c"mpi/pmi2: failed to send temp kvs to compute nodes\00", align 1
@waiting_kvs_resp = external global i32, align 4
@.str.26 = private unnamed_addr constant [79 x i8] c"%s: %s: mpi/pmi2: out _handle_kvs_fence, tasks_to_wait=%d, children_to_wait=%d\00", align 1
@.str.27 = private unnamed_addr constant [45 x i8] c"mpi/pmi2: failed to unpack kvs fence message\00", align 1

; Function Attrs: nounwind uwtable
define internal i32 @_handle_kvs_fence(i32 noundef %0, ptr noundef %1) #0 {
  %3 = alloca i32, align 4
  %4 = alloca i32, align 4
  %5 = alloca ptr, align 8
  %6 = alloca i32, align 4
  %7 = alloca i32, align 4
  %8 = alloca i32, align 4
  %9 = alloca ptr, align 8
  %10 = alloca i32, align 4
  %11 = alloca i32, align 4
  %12 = alloca i32, align 4
  store i32 %0, ptr %4, align 4
  store ptr %1, ptr %5, align 8
  call void @llvm.lifetime.start.p0(i64 4, ptr %6) #6
  call void @llvm.lifetime.start.p0(i64 4, ptr %7) #6
  call void @llvm.lifetime.start.p0(i64 4, ptr %8) #6
  call void @llvm.lifetime.start.p0(i64 8, ptr %9) #6
  store ptr null, ptr %9, align 8
  call void @llvm.lifetime.start.p0(i64 4, ptr %10) #6
  store i32 0, ptr %10, align 4
  br label %13

13:                                               ; preds = %2
  %14 = load ptr, ptr %5, align 8
  %15 = call i32 @slurm_unpack32(ptr noundef %6, ptr noundef %14)
  %16 = icmp ne i32 %15, 0
  br i1 %16, label %17, label %18

17:                                               ; preds = %13
  br label %160

18:                                               ; preds = %13
  br label %19

19:                                               ; preds = %18
  br label %20

20:                                               ; preds = %19
  br label %21

21:                                               ; preds = %20
  call void @llvm.lifetime.start.p0(i64 4, ptr %11) #6
  %22 = load ptr, ptr %5, align 8
  %23 = call i32 @slurm_unpackstr_xmalloc_chooser(ptr noundef %9, ptr noundef %11, ptr noundef %22)
  %24 = icmp ne i32 %23, 0
  br i1 %24, label %25, label %26

25:                                               ; preds = %21
  store i32 4, ptr %12, align 4
  br label %27

26:                                               ; preds = %21
  store i32 0, ptr %12, align 4
  br label %27

27:                                               ; preds = %25, %26
  call void @llvm.lifetime.end.p0(i64 4, ptr %11) #6
  %28 = load i32, ptr %12, align 4
  switch i32 %28, label %162 [
    i32 0, label %29
    i32 4, label %160
  ]

29:                                               ; preds = %27
  br label %30

30:                                               ; preds = %29
  br label %31

31:                                               ; preds = %30
  br label %32

32:                                               ; preds = %31
  %33 = load ptr, ptr %5, align 8
  %34 = call i32 @slurm_unpack32(ptr noundef %7, ptr noundef %33)
  %35 = icmp ne i32 %34, 0
  br i1 %35, label %36, label %37

36:                                               ; preds = %32
  br label %160

37:                                               ; preds = %32
  br label %38

38:                                               ; preds = %37
  br label %39

39:                                               ; preds = %38
  br label %40

40:                                               ; preds = %39
  %41 = load ptr, ptr %5, align 8
  %42 = call i32 @slurm_unpack32(ptr noundef %8, ptr noundef %41)
  %43 = icmp ne i32 %42, 0
  br i1 %43, label %44, label %45

44:                                               ; preds = %40
  br label %160

45:                                               ; preds = %40
  br label %46

46:                                               ; preds = %45
  br label %47

47:                                               ; preds = %46
  br label %48

48:                                               ; preds = %47
  br label %49

49:                                               ; preds = %48
  %50 = call i32 @slurm_get_log_level()
  %51 = icmp sge i32 %50, 7
  br i1 %51, label %52, label %57

52:                                               ; preds = %49
  %53 = load i32, ptr %6, align 4
  %54 = load ptr, ptr %9, align 8
  %55 = load i32, ptr %7, align 4
  %56 = load i32, ptr %8, align 4
  call void (i32, ptr, ...) @slurm_log_var(i32 noundef 7, ptr noundef @.str.19, ptr noundef @plugin_type, ptr noundef @__func__._handle_kvs_fence, i32 noundef %53, ptr noundef %54, i32 noundef %55, i32 noundef %56)
  br label %57

57:                                               ; preds = %52, %49
  br label %58

58:                                               ; preds = %57
  br label %59

59:                                               ; preds = %58
  br label %60

60:                                               ; preds = %59
  br label %61

61:                                               ; preds = %60
  %62 = load i32, ptr %8, align 4
  %63 = load i32, ptr @kvs_seq, align 4
  %64 = icmp ne i32 %62, %63
  br i1 %64, label %65, label %71

65:                                               ; preds = %61
  %66 = load i32, ptr %6, align 4
  %67 = load ptr, ptr %9, align 8
  %68 = load i32, ptr @kvs_seq, align 4
  %69 = load i32, ptr %8, align 4
  %70 = call i32 (ptr, ...) @slurm_error(ptr noundef @.str.20, i32 noundef %66, ptr noundef %67, i32 noundef %68, i32 noundef %69)
  br label %158

71:                                               ; preds = %61
  %72 = load i32, ptr %8, align 4
  %73 = load ptr, ptr getelementptr inbounds nuw (%struct.pmi2_tree_info, ptr @tree_info, i32 0, i32 8), align 8
  %74 = load i32, ptr %6, align 4
  %75 = zext i32 %74 to i64
  %76 = getelementptr inbounds nuw i32, ptr %73, i64 %75
  %77 = load i32, ptr %76, align 4
  %78 = icmp eq i32 %72, %77
  br i1 %78, label %79, label %93

79:                                               ; preds = %71
  br label %80

80:                                               ; preds = %79
  br label %81

81:                                               ; preds = %80
  %82 = call i32 @slurm_get_log_level()
  %83 = icmp sge i32 %82, 3
  br i1 %83, label %84, label %88

84:                                               ; preds = %81
  %85 = load i32, ptr %6, align 4
  %86 = load ptr, ptr %9, align 8
  %87 = load i32, ptr %8, align 4
  call void (i32, ptr, ...) @slurm_log_var(i32 noundef 3, ptr noundef @.str.21, ptr noundef @plugin_type, ptr noundef @__func__._handle_kvs_fence, i32 noundef %85, ptr noundef %86, i32 noundef %87)
  br label %88

88:                                               ; preds = %84, %81
  br label %89

89:                                               ; preds = %88
  br label %90

90:                                               ; preds = %89
  br label %91

91:                                               ; preds = %90
  br label %92

92:                                               ; preds = %91
  br label %158

93:                                               ; preds = %71
  %94 = load i32, ptr %8, align 4
  %95 = load ptr, ptr getelementptr inbounds nuw (%struct.pmi2_tree_info, ptr @tree_info, i32 0, i32 8), align 8
  %96 = load i32, ptr %6, align 4
  %97 = zext i32 %96 to i64
  %98 = getelementptr inbounds nuw i32, ptr %95, i64 %97
  store i32 %94, ptr %98, align 4
  %99 = load i32, ptr @tasks_to_wait, align 4
  %100 = icmp eq i32 %99, 0
  br i1 %100, label %101, label %107

101:                                              ; preds = %93
  %102 = load i32, ptr @children_to_wait, align 4
  %103 = icmp eq i32 %102, 0
  br i1 %103, label %104, label %107

104:                                              ; preds = %101
  %105 = load i32, ptr getelementptr inbounds nuw (%struct.pmi2_job_info, ptr @job_info, i32 0, i32 5), align 8
  store i32 %105, ptr @tasks_to_wait, align 4
  %106 = load i32, ptr getelementptr inbounds nuw (%struct.pmi2_tree_info, ptr @tree_info, i32 0, i32 3), align 4
  store i32 %106, ptr @children_to_wait, align 4
  br label %107

107:                                              ; preds = %104, %101, %93
  %108 = load i32, ptr %7, align 4
  %109 = load i32, ptr @children_to_wait, align 4
  %110 = sub i32 %109, %108
  store i32 %110, ptr @children_to_wait, align 4
  %111 = load ptr, ptr %5, align 8
  %112 = call i32 @temp_kvs_merge(ptr noundef %111)
  %113 = load i32, ptr @children_to_wait, align 4
  %114 = icmp eq i32 %113, 0
  br i1 %114, label %115, label %145

115:                                              ; preds = %107
  %116 = load i32, ptr @tasks_to_wait, align 4
  %117 = icmp eq i32 %116, 0
  br i1 %117, label %118, label %145

118:                                              ; preds = %115
  %119 = call i32 @temp_kvs_send()
  store i32 %119, ptr %10, align 4
  %120 = load i32, ptr %10, align 4
  %121 = icmp ne i32 %120, 0
  br i1 %121, label %122, label %140

122:                                              ; preds = %118
  %123 = call zeroext i1 @in_stepd()
  br i1 %123, label %124, label %134

124:                                              ; preds = %122
  %125 = load ptr, ptr getelementptr inbounds nuw (%struct.pmi2_tree_info, ptr @tree_info, i32 0, i32 1), align 8
  %126 = icmp ne ptr %125, null
  br i1 %126, label %127, label %128

127:                                              ; preds = %124
  br label %129

128:                                              ; preds = %124
  br label %129

129:                                              ; preds = %128, %127
  %130 = phi ptr [ %125, %127 ], [ @.str.23, %128 ]
  %131 = call i32 (ptr, ...) @slurm_error(ptr noundef @.str.22, ptr noundef %130)
  %132 = load i32, ptr %10, align 4
  %133 = call i32 @send_kvs_fence_resp_to_clients(i32 noundef %132, ptr noundef @.str.24)
  br label %136

134:                                              ; preds = %122
  %135 = call i32 (ptr, ...) @slurm_error(ptr noundef @.str.25)
  br label %136

136:                                              ; preds = %134, %129
  %137 = load i32, ptr getelementptr inbounds nuw (%struct.slurm_step_id_msg, ptr @job_info, i32 0, i32 1), align 8
  %138 = load i32, ptr getelementptr inbounds nuw (%struct.slurm_step_id_msg, ptr @job_info, i32 0, i32 3), align 8
  %139 = call i32 @slurm_kill_job_step(i32 noundef %137, i32 noundef %138, i16 noundef zeroext 9, i16 noundef zeroext 0)
  br label %144

140:                                              ; preds = %118
  %141 = call zeroext i1 @in_stepd()
  br i1 %141, label %142, label %143

142:                                              ; preds = %140
  store i32 1, ptr @waiting_kvs_resp, align 4
  br label %143

143:                                              ; preds = %142, %140
  br label %144

144:                                              ; preds = %143, %136
  br label %145

145:                                              ; preds = %144, %115, %107
  br label %146

146:                                              ; preds = %145
  br label %147

147:                                              ; preds = %146
  %148 = call i32 @slurm_get_log_level()
  %149 = icmp sge i32 %148, 7
  br i1 %149, label %150, label %153

150:                                              ; preds = %147
  %151 = load i32, ptr @tasks_to_wait, align 4
  %152 = load i32, ptr @children_to_wait, align 4
  call void (i32, ptr, ...) @slurm_log_var(i32 noundef 7, ptr noundef @.str.26, ptr noundef @plugin_type, ptr noundef @__func__._handle_kvs_fence, i32 noundef %151, i32 noundef %152)
  br label %153

153:                                              ; preds = %150, %147
  br label %154

154:                                              ; preds = %153
  br label %155

155:                                              ; preds = %154
  br label %156

156:                                              ; preds = %155
  br label %157

157:                                              ; preds = %156
  br label %158

158:                                              ; preds = %160, %157, %92, %65
  call void @slurm_xfree(ptr noundef %9)
  %159 = load i32, ptr %10, align 4
  store i32 %159, ptr %3, align 4
  store i32 1, ptr %12, align 4
  br label %162

160:                                              ; preds = %27, %44, %36, %17
  %161 = call i32 (ptr, ...) @slurm_error(ptr noundef @.str.27)
  store i32 -1, ptr %10, align 4
  br label %158

162:                                              ; preds = %158, %27
  call void @llvm.lifetime.end.p0(i64 4, ptr %10) #6
  call void @llvm.lifetime.end.p0(i64 8, ptr %9) #6
  call void @llvm.lifetime.end.p0(i64 4, ptr %8) #6
  call void @llvm.lifetime.end.p0(i64 4, ptr %7) #6
  call void @llvm.lifetime.end.p0(i64 4, ptr %6) #6
  %163 = load i32, ptr %3, align 4
  ret i32 %163
}