; Function Attrs: nounwind uwtable
define internal i32 @_handle_kvs_fence(i32 %0, ptr noundef %1) #0 {
  %3 = alloca i32, align 4
  %4 = alloca i32, align 4
  %5 = alloca i32, align 4
  %6 = alloca ptr, align 8
  %7 = alloca i32, align 4
  call void @llvm.lifetime.start.p0(i64 4, ptr nonnull %3) #7
  call void @llvm.lifetime.start.p0(i64 4, ptr nonnull %4) #7
  call void @llvm.lifetime.start.p0(i64 4, ptr nonnull %5) #7
  call void @llvm.lifetime.start.p0(i64 8, ptr nonnull %6) #7
  store ptr null, ptr %6, align 8
  %8 = call i32 @slurm_unpack32(ptr noundef nonnull %3, ptr noundef %1) #7
  %.not = icmp eq i32 %8, 0
  br i1 %.not, label %9, label %84

9:                                                ; preds = %2
  call void @llvm.lifetime.start.p0(i64 4, ptr nonnull %7) #7
  %10 = call i32 @slurm_unpackstr_xmalloc_chooser(ptr noundef nonnull %6, ptr noundef nonnull %7, ptr noundef %1) #7
  %.not19 = icmp eq i32 %10, 0
  call void @llvm.lifetime.end.p0(i64 4, ptr nonnull %7) #7
  br i1 %.not19, label %11, label %84

11:                                               ; preds = %9
  %12 = call i32 @slurm_unpack32(ptr noundef nonnull %4, ptr noundef %1) #7
  %.not20 = icmp eq i32 %12, 0
  br i1 %.not20, label %13, label %84

13:                                               ; preds = %11
  %14 = call i32 @slurm_unpack32(ptr noundef nonnull %5, ptr noundef %1) #7
  %.not21 = icmp eq i32 %14, 0
  br i1 %.not21, label %15, label %84

15:                                               ; preds = %13
  %16 = call i32 @slurm_get_log_level() #7
  %17 = icmp sgt i32 %16, 6
  br i1 %17, label %18, label %23

18:                                               ; preds = %15
  %19 = load i32, ptr %3, align 4
  %20 = load ptr, ptr %6, align 8
  %21 = load i32, ptr %4, align 4
  %22 = load i32, ptr %5, align 4
  call void (i32, ptr, ...) @slurm_log_var(i32 noundef 7, ptr noundef nonnull @.str.19, ptr noundef nonnull @plugin_type, ptr noundef nonnull @__func__._handle_kvs_fence, i32 noundef %19, ptr noundef %20, i32 noundef %21, i32 noundef %22) #7
  br label %23

23:                                               ; preds = %18, %15
  %24 = load i32, ptr %5, align 4
  %25 = load i32, ptr @kvs_seq, align 4
  %.not22 = icmp eq i32 %24, %25
  br i1 %.not22, label %30, label %26

26:                                               ; preds = %23
  %27 = load i32, ptr %3, align 4
  %28 = load ptr, ptr %6, align 8
  %29 = call i32 (ptr, ...) @slurm_error(ptr noundef nonnull @.str.20, i32 noundef %27, ptr noundef %28, i32 noundef %25, i32 noundef %24) #7
  br label %83

30:                                               ; preds = %23
  %31 = load ptr, ptr getelementptr inbounds nuw (i8, ptr @tree_info, i64 48), align 8
  %32 = load i32, ptr %3, align 4
  %33 = zext i32 %32 to i64
  %34 = getelementptr inbounds nuw i32, ptr %31, i64 %33
  %35 = load i32, ptr %34, align 4
  %36 = icmp eq i32 %24, %35
  br i1 %36, label %37, label %44

37:                                               ; preds = %30
  %38 = call i32 @slurm_get_log_level() #7
  %39 = icmp sgt i32 %38, 2
  br i1 %39, label %40, label %83

40:                                               ; preds = %37
  %41 = load i32, ptr %3, align 4
  %42 = load ptr, ptr %6, align 8
  %43 = load i32, ptr %5, align 4
  call void (i32, ptr, ...) @slurm_log_var(i32 noundef 3, ptr noundef nonnull @.str.21, ptr noundef nonnull @plugin_type, ptr noundef nonnull @__func__._handle_kvs_fence, i32 noundef %41, ptr noundef %42, i32 noundef %43) #7
  br label %83

44:                                               ; preds = %30
  store i32 %24, ptr %34, align 4
  %45 = load i32, ptr @tasks_to_wait, align 4
  %46 = icmp eq i32 %45, 0
  %47 = load i32, ptr @children_to_wait, align 4
  %48 = icmp eq i32 %47, 0
  %or.cond = select i1 %46, i1 %48, i1 false
  br i1 %or.cond, label %49, label %52

49:                                               ; preds = %44
  %50 = load i32, ptr getelementptr inbounds nuw (i8, ptr @job_info, i64 40), align 8
  store i32 %50, ptr @tasks_to_wait, align 4
  %51 = load i32, ptr getelementptr inbounds nuw (i8, ptr @tree_info, i64 20), align 4
  br label %52

52:                                               ; preds = %49, %44
  %53 = phi i32 [ %51, %49 ], [ %47, %44 ]
  %54 = load i32, ptr %4, align 4
  %55 = sub i32 %53, %54
  store i32 %55, ptr @children_to_wait, align 4
  %56 = call i32 @temp_kvs_merge(ptr noundef %1) #7
  %57 = load i32, ptr @children_to_wait, align 4
  %58 = icmp eq i32 %57, 0
  %59 = load i32, ptr @tasks_to_wait, align 4
  %60 = icmp eq i32 %59, 0
  %or.cond3 = select i1 %58, i1 %60, i1 false
  br i1 %or.cond3, label %61, label %77

61:                                               ; preds = %52
  %62 = call i32 @temp_kvs_send() #7
  %.not23 = icmp eq i32 %62, 0
  %63 = call zeroext i1 @in_stepd() #7
  br i1 %.not23, label %75, label %64

64:                                               ; preds = %61
  br i1 %63, label %65, label %69

65:                                               ; preds = %64
  %66 = load ptr, ptr getelementptr inbounds nuw (i8, ptr @tree_info, i64 8), align 8
  %.not24 = icmp eq ptr %66, null
  %..str.23 = select i1 %.not24, ptr @.str.23, ptr %66
  %67 = call i32 (ptr, ...) @slurm_error(ptr noundef nonnull @.str.22, ptr noundef nonnull %..str.23) #7
  %68 = call i32 @send_kvs_fence_resp_to_clients(i32 noundef %62, ptr noundef nonnull @.str.24) #7
  br label %71

69:                                               ; preds = %64
  %70 = call i32 (ptr, ...) @slurm_error(ptr noundef nonnull @.str.25) #7
  br label %71

71:                                               ; preds = %69, %65
  %72 = load i32, ptr getelementptr inbounds nuw (i8, ptr @job_info, i64 8), align 8
  %73 = load i32, ptr getelementptr inbounds nuw (i8, ptr @job_info, i64 16), align 8
  %74 = call i32 @slurm_kill_job_step(i32 noundef %72, i32 noundef %73, i16 noundef zeroext 9, i16 noundef zeroext 0) #7
  br label %77

75:                                               ; preds = %61
  br i1 %63, label %76, label %77

76:                                               ; preds = %75
  store i32 1, ptr @waiting_kvs_resp, align 4
  br label %77

77:                                               ; preds = %71, %76, %75, %52
  %.1 = phi i32 [ %62, %71 ], [ 0, %76 ], [ 0, %75 ], [ 0, %52 ]
  %78 = call i32 @slurm_get_log_level() #7
  %79 = icmp sgt i32 %78, 6
  br i1 %79, label %80, label %83

80:                                               ; preds = %77
  %81 = load i32, ptr @tasks_to_wait, align 4
  %82 = load i32, ptr @children_to_wait, align 4
  call void (i32, ptr, ...) @slurm_log_var(i32 noundef 7, ptr noundef nonnull @.str.26, ptr noundef nonnull @plugin_type, ptr noundef nonnull @__func__._handle_kvs_fence, i32 noundef %81, i32 noundef %82) #7
  br label %83

83:                                               ; preds = %77, %80, %37, %40, %84, %26
  %.012 = phi i32 [ -1, %84 ], [ 0, %26 ], [ 0, %40 ], [ 0, %37 ], [ %.1, %80 ], [ %.1, %77 ]
  call void @slurm_xfree(ptr noundef nonnull %6) #7
  call void @llvm.lifetime.end.p0(i64 8, ptr nonnull %6) #7
  call void @llvm.lifetime.end.p0(i64 4, ptr nonnull %5) #7
  call void @llvm.lifetime.end.p0(i64 4, ptr nonnull %4) #7
  call void @llvm.lifetime.end.p0(i64 4, ptr nonnull %3) #7
  ret i32 %.012

84:                                               ; preds = %9, %13, %11, %2
  %85 = call i32 (ptr, ...) @slurm_error(ptr noundef nonnull @.str.27) #7
  br label %83
}